target datalayout = "e-m:e-p270:32:32-p271:32:32-p272:64:64-i64:64-i128:128-f80:128-n8:16:32:64-S128"
target triple = "x86_64-pc-linux-gnu"

%struct.SDL_AtomicInt = type { i32 }
%struct.SDL_SensorDriver = type { ptr, ptr, ptr, ptr, ptr, ptr, ptr, ptr, ptr, ptr, ptr }
%struct.SDL_Sensor = type { i32, ptr, i32, i32, [16 x float], ptr, ptr, i32, i32, ptr }

@SDL_sensors_initialized = internal global i8 0, align 1
@SDL_sensor_lock_pending = internal global %struct.SDL_AtomicInt zeroinitializer, align 4
@SDL_sensor_lock = internal global ptr null, align 8
@SDL_sensors_locked = internal global i32 0, align 4
@SDL_sensor_drivers = internal global [1 x ptr] [ptr @SDL_DUMMY_SensorDriver], align 8
@SDL_sensors = internal global ptr null, align 8
@.str.2 = private unnamed_addr constant [20 x i8] c"Sensor %u not found\00", align 1

; Function Attrs: nounwind uwtable
define hidden void @SDL_UnlockSensors() #0 {
  %1 = alloca i8, align 1
  %2 = alloca ptr, align 8
  call void @llvm.lifetime.start.p0(i64 1, ptr %1) #6
  store i8 0, ptr %1, align 1
  %3 = load i32, ptr @SDL_sensors_locked, align 4
  %4 = add nsw i32 %3, -1
  store i32 %4, ptr @SDL_sensors_locked, align 4
  %5 = load i8, ptr @SDL_sensors_initialized, align 1, !range !3, !noundef !4
  %6 = trunc i8 %5 to i1
  br i1 %6, label %15, label %7

7:                                                ; preds = %0
  %8 = load i32, ptr @SDL_sensors_locked, align 4
  %9 = icmp ne i32 %8, 0
  br i1 %9, label %14, label %10

10:                                               ; preds = %7
  %11 = call i32 @SDL_GetAtomicInt_REAL(ptr noundef @SDL_sensor_lock_pending)
  %12 = icmp eq i32 %11, 0
  br i1 %12, label %13, label %14

13:                                               ; preds = %10
  store i8 1, ptr %1, align 1
  br label %14

14:                                               ; preds = %13, %10, %7
  br label %15

15:                                               ; preds = %14, %0
  %16 = load i8, ptr %1, align 1, !range !3, !noundef !4
  %17 = trunc i8 %16 to i1
  br i1 %17, label %18, label %24

18:                                               ; preds = %15
  call void @llvm.lifetime.start.p0(i64 8, ptr %2) #6
  %19 = load ptr, ptr @SDL_sensor_lock, align 8
  store ptr %19, ptr %2, align 8
  %20 = load ptr, ptr %2, align 8
  call void @SDL_LockMutex_REAL(ptr noundef %20)
  %21 = load ptr, ptr @SDL_sensor_lock, align 8
  call void @SDL_UnlockMutex_REAL(ptr noundef %21)
  store ptr null, ptr @SDL_sensor_lock, align 8
  %22 = load ptr, ptr %2, align 8
  call void @SDL_UnlockMutex_REAL(ptr noundef %22)
  %23 = load ptr, ptr %2, align 8
  call void @SDL_DestroyMutex_REAL(ptr noundef %23)
  call void @llvm.lifetime.end.p0(i64 8, ptr %2) #6
  br label %26

24:                                               ; preds = %15
  %25 = load ptr, ptr @SDL_sensor_lock, align 8
  call void @SDL_UnlockMutex_REAL(ptr noundef %25)
  br label %26

26:                                               ; preds = %24, %18
  call void @llvm.lifetime.end.p0(i64 1, ptr %1) #6
  ret void
}

; Function Attrs: nounwind uwtable
define internal zeroext i1 @SDL_GetDriverAndSensorIndex(i32 noundef %0, ptr noundef %1, ptr noundef %2) #0 {
  %4 = alloca i1, align 1
  %5 = alloca i32, align 4
  %6 = alloca ptr, align 8
  %7 = alloca ptr, align 8
  %8 = alloca i32, align 4
  %9 = alloca i32, align 4
  %10 = alloca i32, align 4
  %11 = alloca i32, align 4
  %12 = alloca i32, align 4
  store i32 %0, ptr %5, align 4
  store ptr %1, ptr %6, align 8
  store ptr %2, ptr %7, align 8
  call void @llvm.lifetime.start.p0(i64 4, ptr %8) #6
  call void @llvm.lifetime.start.p0(i64 4, ptr %9) #6
  call void @llvm.lifetime.start.p0(i64 4, ptr %10) #6
  %13 = load i32, ptr %5, align 4
  %14 = icmp ugt i32 %13, 0
  br i1 %14, label %15, label %64

15:                                               ; preds = %3
  store i32 0, ptr %8, align 4
  br label %16

16:                                               ; preds = %60, %15
  %17 = load i32, ptr %8, align 4
  %18 = sext i32 %17 to i64
  %19 = icmp ult i64 %18, 1
  br i1 %19, label %20, label %63

20:                                               ; preds = %16
  %21 = load i32, ptr %8, align 4
  %22 = sext i32 %21 to i64
  %23 = getelementptr inbounds [1 x ptr], ptr @SDL_sensor_drivers, i64 0, i64 %22
  %24 = load ptr, ptr %23, align 8
  %25 = getelementptr inbounds nuw %struct.SDL_SensorDriver, ptr %24, i32 0, i32 1
  %26 = load ptr, ptr %25, align 8
  %27 = call i32 %26()
  store i32 %27, ptr %9, align 4
  store i32 0, ptr %10, align 4
  br label %28

28:                                               ; preds = %56, %20
  %29 = load i32, ptr %10, align 4
  %30 = load i32, ptr %9, align 4
  %31 = icmp slt i32 %29, %30
  br i1 %31, label %32, label %59

32:                                               ; preds = %28
  call void @llvm.lifetime.start.p0(i64 4, ptr %11) #6
  %33 = load i32, ptr %8, align 4
  %34 = sext i32 %33 to i64
  %35 = getelementptr inbounds [1 x ptr], ptr @SDL_sensor_drivers, i64 0, i64 %34
  %36 = load ptr, ptr %35, align 8
  %37 = getelementptr inbounds nuw %struct.SDL_SensorDriver, ptr %36, i32 0, i32 6
  %38 = load ptr, ptr %37, align 8
  %39 = load i32, ptr %10, align 4
  %40 = call i32 %38(i32 noundef %39)
  store i32 %40, ptr %11, align 4
  %41 = load i32, ptr %11, align 4
  %42 = load i32, ptr %5, align 4
  %43 = icmp eq i32 %41, %42
  br i1 %43, label %44, label %52

44:                                               ; preds = %32
  %45 = load i32, ptr %8, align 4
  %46 = sext i32 %45 to i64
  %47 = getelementptr inbounds [1 x ptr], ptr @SDL_sensor_drivers, i64 0, i64 %46
  %48 = load ptr, ptr %47, align 8
  %49 = load ptr, ptr %6, align 8
  store ptr %48, ptr %49, align 8
  %50 = load i32, ptr %10, align 4
  %51 = load ptr, ptr %7, align 8
  store i32 %50, ptr %51, align 4
  store i1 true, ptr %4, align 1
  store i32 1, ptr %12, align 4
  br label %53

52:                                               ; preds = %32
  store i32 0, ptr %12, align 4
  br label %53

53:                                               ; preds = %52, %44
  call void @llvm.lifetime.end.p0(i64 4, ptr %11) #6
  %54 = load i32, ptr %12, align 4
  switch i32 %54, label %67 [
    i32 0, label %55
  ]

55:                                               ; preds = %53
  br label %56

56:                                               ; preds = %55
  %57 = load i32, ptr %10, align 4
  %58 = add nsw i32 %57, 1
  store i32 %58, ptr %10, align 4
  br label %28, !llvm.loop !12

59:                                               ; preds = %28
  br label %60

60:                                               ; preds = %59
  %61 = load i32, ptr %8, align 4
  %62 = add nsw i32 %61, 1
  store i32 %62, ptr %8, align 4
  br label %16, !llvm.loop !13

63:                                               ; preds = %16
  br label %64

64:                                               ; preds = %63, %3
  %65 = load i32, ptr %5, align 4
  %66 = call zeroext i1 (ptr, ...) @SDL_SetError_REAL(ptr noundef @.str.2, i32 noundef %65)
  store i1 false, ptr %4, align 1
  store i32 1, ptr %12, align 4
  br label %67

67:                                               ; preds = %64, %53
  call void @llvm.lifetime.end.p0(i64 4, ptr %10) #6
  call void @llvm.lifetime.end.p0(i64 4, ptr %9) #6
  call void @llvm.lifetime.end.p0(i64 4, ptr %8) #6
  %68 = load i1, ptr %4, align 1
  ret i1 %68
}

; Function Attrs: nounwind uwtable
define hidden void @SDL_LockSensors() #0 {
  %1 = call i32 @SDL_AddAtomicInt_REAL(ptr noundef @SDL_sensor_lock_pending, i32 noundef 1)
  %2 = load ptr, ptr @SDL_sensor_lock, align 8
  call void @SDL_LockMutex_REAL(ptr noundef %2)
  %3 = call i32 @SDL_AddAtomicInt_REAL(ptr noundef @SDL_sensor_lock_pending, i32 noundef -1)
  %4 = load i32, ptr @SDL_sensors_locked, align 4
  %5 = add nsw i32 %4, 1
  store i32 %5, ptr @SDL_sensors_locked, align 4
  ret void
}

; Function Attrs: nounwind uwtable
define hidden ptr @SDL_OpenSensor_REAL(i32 noundef %0) #0 {
  %2 = alloca ptr, align 8
  %3 = alloca i32, align 4
  %4 = alloca ptr, align 8
  %5 = alloca i32, align 4
  %6 = alloca ptr, align 8
  %7 = alloca ptr, align 8
  %8 = alloca ptr, align 8
  %9 = alloca i32, align 4
  store i32 %0, ptr %3, align 4
  call void @llvm.lifetime.start.p0(i64 8, ptr %4) #6
  call void @llvm.lifetime.start.p0(i64 4, ptr %5) #6
  call void @llvm.lifetime.start.p0(i64 8, ptr %6) #6
  call void @llvm.lifetime.start.p0(i64 8, ptr %7) #6
  call void @llvm.lifetime.start.p0(i64 8, ptr %8) #6
  store ptr null, ptr %8, align 8
  call void @SDL_LockSensors()
  %10 = load i32, ptr %3, align 4
  %11 = call zeroext i1 @SDL_GetDriverAndSensorIndex(i32 noundef %10, ptr noundef %4, ptr noundef %5)
  br i1 %11, label %13, label %12

12:                                               ; preds = %1
  call void @SDL_UnlockSensors()
  store ptr null, ptr %2, align 8
  store i32 1, ptr %9, align 4
  br label %101

13:                                               ; preds = %1
  %14 = load ptr, ptr @SDL_sensors, align 8
  store ptr %14, ptr %7, align 8
  br label %15

15:                                               ; preds = %31, %13
  %16 = load ptr, ptr %7, align 8
  %17 = icmp ne ptr %16, null
  br i1 %17, label %18, label %35

18:                                               ; preds = %15
  %19 = load i32, ptr %3, align 4
  %20 = load ptr, ptr %7, align 8
  %21 = getelementptr inbounds nuw %struct.SDL_Sensor, ptr %20, i32 0, i32 0
  %22 = load i32, ptr %21, align 8
  %23 = icmp eq i32 %19, %22
  br i1 %23, label %24, label %31

24:                                               ; preds = %18
  %25 = load ptr, ptr %7, align 8
  store ptr %25, ptr %6, align 8
  %26 = load ptr, ptr %6, align 8
  %27 = getelementptr inbounds nuw %struct.SDL_Sensor, ptr %26, i32 0, i32 8
  %28 = load i32, ptr %27, align 4
  %29 = add nsw i32 %28, 1
  store i32 %29, ptr %27, align 4
  call void @SDL_UnlockSensors()
  %30 = load ptr, ptr %6, align 8
  store ptr %30, ptr %2, align 8
  store i32 1, ptr %9, align 4
  br label %101

31:                                               ; preds = %18
  %32 = load ptr, ptr %7, align 8
  %33 = getelementptr inbounds nuw %struct.SDL_Sensor, ptr %32, i32 0, i32 9
  %34 = load ptr, ptr %33, align 8
  store ptr %34, ptr %7, align 8
  br label %15, !llvm.loop !14

35:                                               ; preds = %15
  %36 = call noalias ptr @SDL_calloc_REAL(i64 noundef 1, i64 noundef 120) #7
  store ptr %36, ptr %6, align 8
  %37 = load ptr, ptr %6, align 8
  %38 = icmp ne ptr %37, null
  br i1 %38, label %40, label %39

39:                                               ; preds = %35
  call void @SDL_UnlockSensors()
  store ptr null, ptr %2, align 8
  store i32 1, ptr %9, align 4
  br label %101

40:                                               ; preds = %35
  %41 = load ptr, ptr %6, align 8
  call void @SDL_SetObjectValid(ptr noundef %41, i32 noundef 7, i1 noundef zeroext true)
  %42 = load ptr, ptr %4, align 8
  %43 = load ptr, ptr %6, align 8
  %44 = getelementptr inbounds nuw %struct.SDL_Sensor, ptr %43, i32 0, i32 5
  store ptr %42, ptr %44, align 8
  %45 = load i32, ptr %3, align 4
  %46 = load ptr, ptr %6, align 8
  %47 = getelementptr inbounds nuw %struct.SDL_Sensor, ptr %46, i32 0, i32 0
  store i32 %45, ptr %47, align 8
  %48 = load ptr, ptr %4, align 8
  %49 = getelementptr inbounds nuw %struct.SDL_SensorDriver, ptr %48, i32 0, i32 4
  %50 = load ptr, ptr %49, align 8
  %51 = load i32, ptr %5, align 4
  %52 = call i32 %50(i32 noundef %51)
  %53 = load ptr, ptr %6, align 8
  %54 = getelementptr inbounds nuw %struct.SDL_Sensor, ptr %53, i32 0, i32 2
  store i32 %52, ptr %54, align 8
  %55 = load ptr, ptr %4, align 8
  %56 = getelementptr inbounds nuw %struct.SDL_SensorDriver, ptr %55, i32 0, i32 5
  %57 = load ptr, ptr %56, align 8
  %58 = load i32, ptr %5, align 4
  %59 = call i32 %57(i32 noundef %58)
  %60 = load ptr, ptr %6, align 8
  %61 = getelementptr inbounds nuw %struct.SDL_Sensor, ptr %60, i32 0, i32 3
  store i32 %59, ptr %61, align 4
  %62 = load ptr, ptr %4, align 8
  %63 = getelementptr inbounds nuw %struct.SDL_SensorDriver, ptr %62, i32 0, i32 7
  %64 = load ptr, ptr %63, align 8
  %65 = load ptr, ptr %6, align 8
  %66 = load i32, ptr %5, align 4
  %67 = call zeroext i1 %64(ptr noundef %65, i32 noundef %66)
  br i1 %67, label %71, label %68

68:                                               ; preds = %40
  %69 = load ptr, ptr %6, align 8
  call void @SDL_SetObjectValid(ptr noundef %69, i32 noundef 7, i1 noundef zeroext false)
  %70 = load ptr, ptr %6, align 8
  call void @SDL_free_REAL(ptr noundef %70)
  call void @SDL_UnlockSensors()
  store ptr null, ptr %2, align 8
  store i32 1, ptr %9, align 4
  br label %101

71:                                               ; preds = %40
  %72 = load ptr, ptr %4, align 8
  %73 = getelementptr inbounds nuw %struct.SDL_SensorDriver, ptr %72, i32 0, i32 3
  %74 = load ptr, ptr %73, align 8
  %75 = load i32, ptr %5, align 4
  %76 = call ptr %74(i32 noundef %75)
  store ptr %76, ptr %8, align 8
  %77 = load ptr, ptr %8, align 8
  %78 = icmp ne ptr %77, null
  br i1 %78, label %79, label %84

79:                                               ; preds = %71
  %80 = load ptr, ptr %8, align 8
  %81 = call noalias ptr @SDL_strdup_REAL(ptr noundef %80)
  %82 = load ptr, ptr %6, align 8
  %83 = getelementptr inbounds nuw %struct.SDL_Sensor, ptr %82, i32 0, i32 1
  store ptr %81, ptr %83, align 8
  br label %87

84:                                               ; preds = %71
  %85 = load ptr, ptr %6, align 8
  %86 = getelementptr inbounds nuw %struct.SDL_Sensor, ptr %85, i32 0, i32 1
  store ptr null, ptr %86, align 8
  br label %87

87:                                               ; preds = %84, %79
  %88 = load ptr, ptr %6, align 8
  %89 = getelementptr inbounds nuw %struct.SDL_Sensor, ptr %88, i32 0, i32 8
  %90 = load i32, ptr %89, align 4
  %91 = add nsw i32 %90, 1
  store i32 %91, ptr %89, align 4
  %92 = load ptr, ptr @SDL_sensors, align 8
  %93 = load ptr, ptr %6, align 8
  %94 = getelementptr inbounds nuw %struct.SDL_Sensor, ptr %93, i32 0, i32 9
  store ptr %92, ptr %94, align 8
  %95 = load ptr, ptr %6, align 8
  store ptr %95, ptr @SDL_sensors, align 8
  %96 = load ptr, ptr %4, align 8
  %97 = getelementptr inbounds nuw %struct.SDL_SensorDriver, ptr %96, i32 0, i32 8
  %98 = load ptr, ptr %97, align 8
  %99 = load ptr, ptr %6, align 8
  call void %98(ptr noundef %99)
  call void @SDL_UnlockSensors()
  %100 = load ptr, ptr %6, align 8
  store ptr %100, ptr %2, align 8
  store i32 1, ptr %9, align 4
  br label %101

101:                                              ; preds = %87, %68, %39, %24, %12
  call void @llvm.lifetime.end.p0(i64 8, ptr %8) #6
  call void @llvm.lifetime.end.p0(i64 8, ptr %7) #6
  call void @llvm.lifetime.end.p0(i64 8, ptr %6) #6
  call void @llvm.lifetime.end.p0(i64 4, ptr %5) #6
  call void @llvm.lifetime.end.p0(i64 8, ptr %4) #6
  %102 = load ptr, ptr %2, align 8
  ret ptr %102
}