; Function Attrs: nounwind uwtable
define hidden noundef ptr @SDL_OpenSensor_REAL(i32 noundef %0) local_unnamed_addr #1 {
  %2 = tail call i32 @SDL_AddAtomicInt_REAL(ptr noundef nonnull @SDL_sensor_lock_pending, i32 noundef 1) #9
  %3 = load ptr, ptr @SDL_sensor_lock, align 8
  tail call void @SDL_LockMutex_REAL(ptr noundef %3) #9
  %4 = tail call i32 @SDL_AddAtomicInt_REAL(ptr noundef nonnull @SDL_sensor_lock_pending, i32 noundef -1) #9
  %5 = load i32, ptr @SDL_sensors_locked, align 4
  %6 = add nsw i32 %5, 1
  store i32 %6, ptr @SDL_sensors_locked, align 4
  %.not.i = icmp eq i32 %0, 0
  br i1 %.not.i, label %.loopexit, label %7

7:                                                ; preds = %1
  %8 = load ptr, ptr getelementptr inbounds nuw (i8, ptr @SDL_DUMMY_SensorDriver, i64 8), align 8
  %9 = tail call i32 %8() #9
  %10 = icmp sgt i32 %9, 0
  br i1 %10, label %.lr.ph.i, label %.loopexit

.lr.ph.i:                                         ; preds = %7, %.critedge24.i
  %.01826.i = phi i32 [ %13, %.critedge24.i ], [ 0, %7 ]
  %11 = load ptr, ptr getelementptr inbounds nuw (i8, ptr @SDL_DUMMY_SensorDriver, i64 48), align 8
  %12 = tail call i32 %11(i32 noundef %.01826.i) #9
  %.not22.i = icmp eq i32 %12, %0
  br i1 %.not22.i, label %SDL_GetDriverAndSensorIndex.exit.preheader, label %.critedge24.i

SDL_GetDriverAndSensorIndex.exit.preheader:       ; preds = %.lr.ph.i
  %.061 = load ptr, ptr @SDL_sensors, align 8
  %.not62 = icmp eq ptr %.061, null
  br i1 %.not62, label %SDL_GetDriverAndSensorIndex.exit._crit_edge, label %.lr.ph

.critedge24.i:                                    ; preds = %.lr.ph.i
  %13 = add nuw nsw i32 %.01826.i, 1
  %exitcond.not.i = icmp eq i32 %13, %9
  br i1 %exitcond.not.i, label %.loopexit, label %.lr.ph.i, !llvm.loop !6

.loopexit:                                        ; preds = %.critedge24.i, %1, %7
  %14 = tail call zeroext i1 (ptr, ...) @SDL_SetError_REAL(ptr noundef nonnull @.str.2, i32 noundef %0) #9
  %15 = load i32, ptr @SDL_sensors_locked, align 4
  %16 = add nsw i32 %15, -1
  store i32 %16, ptr @SDL_sensors_locked, align 4
  %.b4.i = load i1, ptr @SDL_sensors_initialized, align 1
  %17 = icmp ne i32 %16, 0
  %or.cond.i = select i1 %.b4.i, i1 true, i1 %17
  br i1 %or.cond.i, label %.critedge.i32, label %18

18:                                               ; preds = %.loopexit
  %19 = tail call i32 @SDL_GetAtomicInt_REAL(ptr noundef nonnull @SDL_sensor_lock_pending) #9
  %20 = icmp eq i32 %19, 0
  br i1 %20, label %21, label %.critedge.i32

21:                                               ; preds = %18
  %22 = load ptr, ptr @SDL_sensor_lock, align 8
  tail call void @SDL_LockMutex_REAL(ptr noundef %22) #9
  %23 = load ptr, ptr @SDL_sensor_lock, align 8
  tail call void @SDL_UnlockMutex_REAL(ptr noundef %23) #9
  store ptr null, ptr @SDL_sensor_lock, align 8
  tail call void @SDL_UnlockMutex_REAL(ptr noundef %22) #9
  tail call void @SDL_DestroyMutex_REAL(ptr noundef %22) #9
  br label %SDL_UnlockSensors.exit

.critedge.i32:                                    ; preds = %18, %.loopexit
  %24 = load ptr, ptr @SDL_sensor_lock, align 8
  tail call void @SDL_UnlockMutex_REAL(ptr noundef %24) #9
  br label %SDL_UnlockSensors.exit

.lr.ph:                                           ; preds = %SDL_GetDriverAndSensorIndex.exit.preheader, %SDL_GetDriverAndSensorIndex.exit
  %.063 = phi ptr [ %.0, %SDL_GetDriverAndSensorIndex.exit ], [ %.061, %SDL_GetDriverAndSensorIndex.exit.preheader ]
  %25 = load i32, ptr %.063, align 8
  %26 = icmp eq i32 %0, %25
  br i1 %26, label %27, label %SDL_GetDriverAndSensorIndex.exit

27:                                               ; preds = %.lr.ph
  %28 = getelementptr inbounds nuw i8, ptr %.063, i64 108
  %29 = load i32, ptr %28, align 4
  %30 = add nsw i32 %29, 1
  store i32 %30, ptr %28, align 4
  %31 = load i32, ptr @SDL_sensors_locked, align 4
  %32 = add nsw i32 %31, -1
  store i32 %32, ptr @SDL_sensors_locked, align 4
  %.b4.i33 = load i1, ptr @SDL_sensors_initialized, align 1
  %33 = icmp ne i32 %32, 0
  %or.cond.i34 = select i1 %.b4.i33, i1 true, i1 %33
  br i1 %or.cond.i34, label %.critedge.i35, label %34

34:                                               ; preds = %27
  %35 = tail call i32 @SDL_GetAtomicInt_REAL(ptr noundef nonnull @SDL_sensor_lock_pending) #9
  %36 = icmp eq i32 %35, 0
  br i1 %36, label %37, label %.critedge.i35

37:                                               ; preds = %34
  %38 = load ptr, ptr @SDL_sensor_lock, align 8
  tail call void @SDL_LockMutex_REAL(ptr noundef %38) #9
  %39 = load ptr, ptr @SDL_sensor_lock, align 8
  tail call void @SDL_UnlockMutex_REAL(ptr noundef %39) #9
  store ptr null, ptr @SDL_sensor_lock, align 8
  tail call void @SDL_UnlockMutex_REAL(ptr noundef %38) #9
  tail call void @SDL_DestroyMutex_REAL(ptr noundef %38) #9
  br label %SDL_UnlockSensors.exit

.critedge.i35:                                    ; preds = %34, %27
  %40 = load ptr, ptr @SDL_sensor_lock, align 8
  tail call void @SDL_UnlockMutex_REAL(ptr noundef %40) #9
  br label %SDL_UnlockSensors.exit

SDL_GetDriverAndSensorIndex.exit:                 ; preds = %.lr.ph
  %41 = getelementptr inbounds nuw i8, ptr %.063, i64 112
  %.0 = load ptr, ptr %41, align 8
  %.not = icmp eq ptr %.0, null
  br i1 %.not, label %SDL_GetDriverAndSensorIndex.exit._crit_edge, label %.lr.ph, !llvm.loop !7

SDL_GetDriverAndSensorIndex.exit._crit_edge:      ; preds = %SDL_GetDriverAndSensorIndex.exit, %SDL_GetDriverAndSensorIndex.exit.preheader
  %42 = tail call noalias dereferenceable_or_null(120) ptr @SDL_calloc_REAL(i64 noundef 1, i64 noundef 120) #10
  %.not30 = icmp eq ptr %42, null
  br i1 %.not30, label %43, label %54

43:                                               ; preds = %SDL_GetDriverAndSensorIndex.exit._crit_edge
  %44 = load i32, ptr @SDL_sensors_locked, align 4
  %45 = add nsw i32 %44, -1
  store i32 %45, ptr @SDL_sensors_locked, align 4
  %.b4.i37 = load i1, ptr @SDL_sensors_initialized, align 1
  %46 = icmp ne i32 %45, 0
  %or.cond.i38 = select i1 %.b4.i37, i1 true, i1 %46
  br i1 %or.cond.i38, label %.critedge.i39, label %47

47:                                               ; preds = %43
  %48 = tail call i32 @SDL_GetAtomicInt_REAL(ptr noundef nonnull @SDL_sensor_lock_pending) #9
  %49 = icmp eq i32 %48, 0
  br i1 %49, label %50, label %.critedge.i39

50:                                               ; preds = %47
  %51 = load ptr, ptr @SDL_sensor_lock, align 8
  tail call void @SDL_LockMutex_REAL(ptr noundef %51) #9
  %52 = load ptr, ptr @SDL_sensor_lock, align 8
  tail call void @SDL_UnlockMutex_REAL(ptr noundef %52) #9
  store ptr null, ptr @SDL_sensor_lock, align 8
  tail call void @SDL_UnlockMutex_REAL(ptr noundef %51) #9
  tail call void @SDL_DestroyMutex_REAL(ptr noundef %51) #9
  br label %SDL_UnlockSensors.exit

.critedge.i39:                                    ; preds = %47, %43
  %53 = load ptr, ptr @SDL_sensor_lock, align 8
  tail call void @SDL_UnlockMutex_REAL(ptr noundef %53) #9
  br label %SDL_UnlockSensors.exit

54:                                               ; preds = %SDL_GetDriverAndSensorIndex.exit._crit_edge
  tail call void @SDL_SetObjectValid(ptr noundef nonnull %42, i32 noundef 7, i1 noundef zeroext true) #9
  %55 = getelementptr inbounds nuw i8, ptr %42, i64 88
  store ptr @SDL_DUMMY_SensorDriver, ptr %55, align 8
  store i32 %0, ptr %42, align 8
  %56 = load ptr, ptr getelementptr inbounds nuw (i8, ptr @SDL_DUMMY_SensorDriver, i64 32), align 8
  %57 = tail call i32 %56(i32 noundef %.01826.i) #9
  %58 = getelementptr inbounds nuw i8, ptr %42, i64 16
  store i32 %57, ptr %58, align 8
  %59 = load ptr, ptr getelementptr inbounds nuw (i8, ptr @SDL_DUMMY_SensorDriver, i64 40), align 8
  %60 = tail call i32 %59(i32 noundef %.01826.i) #9
  %61 = getelementptr inbounds nuw i8, ptr %42, i64 20
  store i32 %60, ptr %61, align 4
  %62 = load ptr, ptr getelementptr inbounds nuw (i8, ptr @SDL_DUMMY_SensorDriver, i64 56), align 8
  %63 = tail call zeroext i1 %62(ptr noundef nonnull %42, i32 noundef %.01826.i) #9
  br i1 %63, label %75, label %64

64:                                               ; preds = %54
  tail call void @SDL_SetObjectValid(ptr noundef nonnull %42, i32 noundef 7, i1 noundef zeroext false) #9
  tail call void @SDL_free_REAL(ptr noundef nonnull %42) #9
  %65 = load i32, ptr @SDL_sensors_locked, align 4
  %66 = add nsw i32 %65, -1
  store i32 %66, ptr @SDL_sensors_locked, align 4
  %.b4.i41 = load i1, ptr @SDL_sensors_initialized, align 1
  %67 = icmp ne i32 %66, 0
  %or.cond.i42 = select i1 %.b4.i41, i1 true, i1 %67
  br i1 %or.cond.i42, label %.critedge.i43, label %68

68:                                               ; preds = %64
  %69 = tail call i32 @SDL_GetAtomicInt_REAL(ptr noundef nonnull @SDL_sensor_lock_pending) #9
  %70 = icmp eq i32 %69, 0
  br i1 %70, label %71, label %.critedge.i43

71:                                               ; preds = %68
  %72 = load ptr, ptr @SDL_sensor_lock, align 8
  tail call void @SDL_LockMutex_REAL(ptr noundef %72) #9
  %73 = load ptr, ptr @SDL_sensor_lock, align 8
  tail call void @SDL_UnlockMutex_REAL(ptr noundef %73) #9
  store ptr null, ptr @SDL_sensor_lock, align 8
  tail call void @SDL_UnlockMutex_REAL(ptr noundef %72) #9
  tail call void @SDL_DestroyMutex_REAL(ptr noundef %72) #9
  br label %SDL_UnlockSensors.exit

.critedge.i43:                                    ; preds = %68, %64
  %74 = load ptr, ptr @SDL_sensor_lock, align 8
  tail call void @SDL_UnlockMutex_REAL(ptr noundef %74) #9
  br label %SDL_UnlockSensors.exit

75:                                               ; preds = %54
  %76 = load ptr, ptr getelementptr inbounds nuw (i8, ptr @SDL_DUMMY_SensorDriver, i64 24), align 8
  %77 = tail call ptr %76(i32 noundef %.01826.i) #9
  %.not31 = icmp eq ptr %77, null
  br i1 %.not31, label %80, label %78

78:                                               ; preds = %75
  %79 = tail call noalias ptr @SDL_strdup_REAL(ptr noundef nonnull %77) #9
  br label %80

80:                                               ; preds = %75, %78
  %.sink = phi ptr [ %79, %78 ], [ null, %75 ]
  %81 = getelementptr inbounds nuw i8, ptr %42, i64 8
  store ptr %.sink, ptr %81, align 8
  %82 = getelementptr inbounds nuw i8, ptr %42, i64 108
  %83 = load i32, ptr %82, align 4
  %84 = add nsw i32 %83, 1
  store i32 %84, ptr %82, align 4
  %85 = load ptr, ptr @SDL_sensors, align 8
  %86 = getelementptr inbounds nuw i8, ptr %42, i64 112
  store ptr %85, ptr %86, align 8
  store ptr %42, ptr @SDL_sensors, align 8
  %87 = load ptr, ptr getelementptr inbounds nuw (i8, ptr @SDL_DUMMY_SensorDriver, i64 64), align 8
  tail call void %87(ptr noundef nonnull %42) #9
  %88 = load i32, ptr @SDL_sensors_locked, align 4
  %89 = add nsw i32 %88, -1
  store i32 %89, ptr @SDL_sensors_locked, align 4
  %.b4.i45 = load i1, ptr @SDL_sensors_initialized, align 1
  %90 = icmp ne i32 %89, 0
  %or.cond.i46 = select i1 %.b4.i45, i1 true, i1 %90
  br i1 %or.cond.i46, label %.critedge.i47, label %91

91:                                               ; preds = %80
  %92 = tail call i32 @SDL_GetAtomicInt_REAL(ptr noundef nonnull @SDL_sensor_lock_pending) #9
  %93 = icmp eq i32 %92, 0
  br i1 %93, label %94, label %.critedge.i47

94:                                               ; preds = %91
  %95 = load ptr, ptr @SDL_sensor_lock, align 8
  tail call void @SDL_LockMutex_REAL(ptr noundef %95) #9
  %96 = load ptr, ptr @SDL_sensor_lock, align 8
  tail call void @SDL_UnlockMutex_REAL(ptr noundef %96) #9
  store ptr null, ptr @SDL_sensor_lock, align 8
  tail call void @SDL_UnlockMutex_REAL(ptr noundef %95) #9
  tail call void @SDL_DestroyMutex_REAL(ptr noundef %95) #9
  br label %SDL_UnlockSensors.exit

.critedge.i47:                                    ; preds = %91, %80
  %97 = load ptr, ptr @SDL_sensor_lock, align 8
  tail call void @SDL_UnlockMutex_REAL(ptr noundef %97) #9
  br label %SDL_UnlockSensors.exit

SDL_UnlockSensors.exit:                           ; preds = %.critedge.i47, %94, %.critedge.i43, %71, %.critedge.i39, %50, %.critedge.i35, %37, %.critedge.i32, %21
  %.027 = phi ptr [ null, %21 ], [ null, %.critedge.i32 ], [ %.063, %37 ], [ %.063, %.critedge.i35 ], [ null, %50 ], [ null, %.critedge.i39 ], [ null, %71 ], [ null, %.critedge.i43 ], [ %42, %94 ], [ %42, %.critedge.i47 ]
  ret ptr %.027
}